target datalayout = "e-m:e-p270:32:32-p271:32:32-p272:64:64-i64:64-i128:128-f80:128-n8:16:32:64-S128"
target triple = "x86_64-pc-linux-gnu"

@.str.2 = private unnamed_addr constant [37 x i8] c"%s[%5d] (%8d,%8d,%8d - %8d,%8d,%8d)\0A\00", align 1
@.str.3 = private unnamed_addr constant [32 x i8] c"%s (%8d,%8d,%8d - %8d,%8d,%8d)\0A\00", align 1

; Function Attrs: mustprogress nounwind uwtable
define void @_Z8cmp_ivecP8_IO_FILEPKciPKiS4_(ptr noundef %0, ptr noundef %1, i32 noundef %2, ptr noundef %3, ptr noundef %4) #3 {
  %6 = alloca ptr, align 8
  %7 = alloca ptr, align 8
  %8 = alloca i32, align 4
  %9 = alloca ptr, align 8
  %10 = alloca ptr, align 8
  store ptr %0, ptr %6, align 8, !tbaa !4
  store ptr %1, ptr %7, align 8, !tbaa !9
  store i32 %2, ptr %8, align 4, !tbaa !11
  store ptr %3, ptr %9, align 8, !tbaa !17
  store ptr %4, ptr %10, align 8, !tbaa !17
  %11 = load ptr, ptr %9, align 8, !tbaa !17
  %12 = getelementptr inbounds i32, ptr %11, i64 0
  %13 = load i32, ptr %12, align 4, !tbaa !11
  %14 = load ptr, ptr %10, align 8, !tbaa !17
  %15 = getelementptr inbounds i32, ptr %14, i64 0
  %16 = load i32, ptr %15, align 4, !tbaa !11
  %17 = icmp ne i32 %13, %16
  br i1 %17, label %34, label %18

18:                                               ; preds = %5
  %19 = load ptr, ptr %9, align 8, !tbaa !17
  %20 = getelementptr inbounds i32, ptr %19, i64 1
  %21 = load i32, ptr %20, align 4, !tbaa !11
  %22 = load ptr, ptr %10, align 8, !tbaa !17
  %23 = getelementptr inbounds i32, ptr %22, i64 1
  %24 = load i32, ptr %23, align 4, !tbaa !11
  %25 = icmp ne i32 %21, %24
  br i1 %25, label %34, label %26

26:                                               ; preds = %18
  %27 = load ptr, ptr %9, align 8, !tbaa !17
  %28 = getelementptr inbounds i32, ptr %27, i64 2
  %29 = load i32, ptr %28, align 4, !tbaa !11
  %30 = load ptr, ptr %10, align 8, !tbaa !17
  %31 = getelementptr inbounds i32, ptr %30, i64 2
  %32 = load i32, ptr %31, align 4, !tbaa !11
  %33 = icmp ne i32 %29, %32
  br i1 %33, label %34, label %83

34:                                               ; preds = %26, %18, %5
  %35 = load i32, ptr %8, align 4, !tbaa !11
  %36 = icmp ne i32 %35, -1
  br i1 %36, label %37, label %60

37:                                               ; preds = %34
  %38 = load ptr, ptr %6, align 8, !tbaa !4
  %39 = load ptr, ptr %7, align 8, !tbaa !9
  %40 = load i32, ptr %8, align 4, !tbaa !11
  %41 = load ptr, ptr %9, align 8, !tbaa !17
  %42 = getelementptr inbounds i32, ptr %41, i64 0
  %43 = load i32, ptr %42, align 4, !tbaa !11
  %44 = load ptr, ptr %9, align 8, !tbaa !17
  %45 = getelementptr inbounds i32, ptr %44, i64 1
  %46 = load i32, ptr %45, align 4, !tbaa !11
  %47 = load ptr, ptr %9, align 8, !tbaa !17
  %48 = getelementptr inbounds i32, ptr %47, i64 2
  %49 = load i32, ptr %48, align 4, !tbaa !11
  %50 = load ptr, ptr %10, align 8, !tbaa !17
  %51 = getelementptr inbounds i32, ptr %50, i64 0
  %52 = load i32, ptr %51, align 4, !tbaa !11
  %53 = load ptr, ptr %10, align 8, !tbaa !17
  %54 = getelementptr inbounds i32, ptr %53, i64 1
  %55 = load i32, ptr %54, align 4, !tbaa !11
  %56 = load ptr, ptr %10, align 8, !tbaa !17
  %57 = getelementptr inbounds i32, ptr %56, i64 2
  %58 = load i32, ptr %57, align 4, !tbaa !11
  %59 = call i32 (ptr, ptr, ...) @fprintf(ptr noundef %38, ptr noundef @.str.2, ptr noundef %39, i32 noundef %40, i32 noundef %43, i32 noundef %46, i32 noundef %49, i32 noundef %52, i32 noundef %55, i32 noundef %58) #9
  br label %82

60:                                               ; preds = %34
  %61 = load ptr, ptr %6, align 8, !tbaa !4
  %62 = load ptr, ptr %7, align 8, !tbaa !9
  %63 = load ptr, ptr %9, align 8, !tbaa !17
  %64 = getelementptr inbounds i32, ptr %63, i64 0
  %65 = load i32, ptr %64, align 4, !tbaa !11
  %66 = load ptr, ptr %9, align 8, !tbaa !17
  %67 = getelementptr inbounds i32, ptr %66, i64 1
  %68 = load i32, ptr %67, align 4, !tbaa !11
  %69 = load ptr, ptr %9, align 8, !tbaa !17
  %70 = getelementptr inbounds i32, ptr %69, i64 2
  %71 = load i32, ptr %70, align 4, !tbaa !11
  %72 = load ptr, ptr %10, align 8, !tbaa !17
  %73 = getelementptr inbounds i32, ptr %72, i64 0
  %74 = load i32, ptr %73, align 4, !tbaa !11
  %75 = load ptr, ptr %10, align 8, !tbaa !17
  %76 = getelementptr inbounds i32, ptr %75, i64 1
  %77 = load i32, ptr %76, align 4, !tbaa !11
  %78 = load ptr, ptr %10, align 8, !tbaa !17
  %79 = getelementptr inbounds i32, ptr %78, i64 2
  %80 = load i32, ptr %79, align 4, !tbaa !11
  %81 = call i32 (ptr, ptr, ...) @fprintf(ptr noundef %61, ptr noundef @.str.3, ptr noundef %62, i32 noundef %65, i32 noundef %68, i32 noundef %71, i32 noundef %74, i32 noundef %77, i32 noundef %80) #9
  br label %82

82:                                               ; preds = %60, %37
  br label %83

83:                                               ; preds = %82, %26
  ret void
}