; Function Attrs: mustprogress nofree nounwind uwtable
define void @_Z8cmp_ivecP8_IO_FILEPKciPKiS4_(ptr noundef captures(none) %0, ptr noundef %1, i32 noundef %2, ptr noundef readonly captures(none) %3, ptr noundef readonly captures(none) %4) local_unnamed_addr #3 {
  %6 = load i32, ptr %3, align 4, !tbaa !8
  %7 = load i32, ptr %4, align 4, !tbaa !8
  %.not = icmp eq i32 %6, %7
  br i1 %.not, label %8, label %18

8:                                                ; preds = %5
  %9 = getelementptr inbounds nuw i8, ptr %3, i64 4
  %10 = load i32, ptr %9, align 4, !tbaa !8
  %11 = getelementptr inbounds nuw i8, ptr %4, i64 4
  %12 = load i32, ptr %11, align 4, !tbaa !8
  %.not23 = icmp eq i32 %10, %12
  br i1 %.not23, label %13, label %18

13:                                               ; preds = %8
  %14 = getelementptr inbounds nuw i8, ptr %3, i64 8
  %15 = load i32, ptr %14, align 4, !tbaa !8
  %16 = getelementptr inbounds nuw i8, ptr %4, i64 8
  %17 = load i32, ptr %16, align 4, !tbaa !8
  %.not24 = icmp eq i32 %15, %17
  br i1 %.not24, label %31, label %18

18:                                               ; preds = %13, %8, %5
  %.not25 = icmp eq i32 %2, -1
  %19 = getelementptr inbounds nuw i8, ptr %3, i64 4
  %20 = load i32, ptr %19, align 4, !tbaa !8
  %21 = getelementptr inbounds nuw i8, ptr %3, i64 8
  %22 = load i32, ptr %21, align 4, !tbaa !8
  %23 = getelementptr inbounds nuw i8, ptr %4, i64 4
  %24 = load i32, ptr %23, align 4, !tbaa !8
  %25 = getelementptr inbounds nuw i8, ptr %4, i64 8
  %26 = load i32, ptr %25, align 4, !tbaa !8
  br i1 %.not25, label %29, label %27

27:                                               ; preds = %18
  %28 = tail call i32 (ptr, ptr, ...) @fprintf(ptr noundef %0, ptr noundef nonnull @.str.2, ptr noundef %1, i32 noundef %2, i32 noundef %6, i32 noundef %20, i32 noundef %22, i32 noundef %7, i32 noundef %24, i32 noundef %26) #6
  br label %31

29:                                               ; preds = %18
  %30 = tail call i32 (ptr, ptr, ...) @fprintf(ptr noundef %0, ptr noundef nonnull @.str.3, ptr noundef %1, i32 noundef %6, i32 noundef %20, i32 noundef %22, i32 noundef %7, i32 noundef %24, i32 noundef %26) #6
  br label %31

31:                                               ; preds = %27, %29, %13
  ret void
}